target datalayout = "e-m:e-p270:32:32-p271:32:32-p272:64:64-i64:64-i128:128-f80:128-n8:16:32:64-S128"
target triple = "x86_64-pc-linux-gnu"

%"class.llvm::SmallVectorBase" = type { ptr, i32, i32 }
%"class.llvm::InstructionCost" = type <{ i64, i32, [4 x i8] }>
%"class.llvm::FastMathFlags" = type { i32 }
%"class.llvm::IntrinsicCostAttributes" = type { ptr, ptr, i32, %"class.llvm::SmallVector.33", %"class.llvm::SmallVector.38", %"class.llvm::FastMathFlags", [4 x i8], %"class.llvm::InstructionCost" }
%"class.llvm::SmallVector.33" = type { %"class.llvm::SmallVectorImpl.34", %"struct.llvm::SmallVectorStorage.37" }
%"class.llvm::SmallVectorImpl.34" = type { %"class.llvm::SmallVectorTemplateBase.35" }
%"class.llvm::SmallVectorTemplateBase.35" = type { %"class.llvm::SmallVectorTemplateCommon.36" }
%"class.llvm::SmallVectorTemplateCommon.36" = type { %"class.llvm::SmallVectorBase" }
%"struct.llvm::SmallVectorStorage.37" = type { [32 x i8] }
%"class.llvm::SmallVector.38" = type { %"class.llvm::SmallVectorImpl.39", %"struct.llvm::SmallVectorStorage.42" }
%"class.llvm::SmallVectorImpl.39" = type { %"class.llvm::SmallVectorTemplateBase.40" }
%"class.llvm::SmallVectorTemplateBase.40" = type { %"class.llvm::SmallVectorTemplateCommon.41" }
%"class.llvm::SmallVectorTemplateCommon.41" = type { %"class.llvm::SmallVectorBase" }
%"struct.llvm::SmallVectorStorage.42" = type { [32 x i8] }
%"class.llvm::ArrayRef" = type { ptr, i64 }
%"class.llvm::ArrayRef.53" = type { ptr, i64 }

; Function Attrs: mustprogress nounwind uwtable
define linkonce_odr hidden noundef ptr @_ZNK4llvm25SmallVectorTemplateCommonIPKNS_5ValueEvE10getFirstElEv(ptr noundef nonnull align 8 dereferenceable(16) %0) #1 comdat align 2 {
  %2 = alloca ptr, align 8
  store ptr %0, ptr %2, align 8
  %3 = load ptr, ptr %2, align 8
  %4 = getelementptr inbounds i8, ptr %3, i64 16
  ret ptr %4
}

; Function Attrs: mustprogress nounwind uwtable
define linkonce_odr hidden noundef ptr @_ZNK4llvm25SmallVectorTemplateCommonIPNS_4TypeEvE10getFirstElEv(ptr noundef nonnull align 8 dereferenceable(16) %0) #1 comdat align 2 {
  %2 = alloca ptr, align 8
  store ptr %0, ptr %2, align 8
  %3 = load ptr, ptr %2, align 8
  %4 = getelementptr inbounds i8, ptr %3, i64 16
  ret ptr %4
}

; Function Attrs: mustprogress nounwind uwtable
define linkonce_odr hidden void @_ZN4llvm25SmallVectorTemplateCommonIPKNS_5ValueEvEC2Em(ptr noundef nonnull align 8 dereferenceable(16) %0, i64 noundef %1) unnamed_addr #1 comdat align 2 {
  %3 = alloca ptr, align 8
  %4 = alloca i64, align 8
  store ptr %0, ptr %3, align 8
  store i64 %1, ptr %4, align 8
  %5 = load ptr, ptr %3, align 8
  %6 = call noundef ptr @_ZNK4llvm25SmallVectorTemplateCommonIPKNS_5ValueEvE10getFirstElEv(ptr noundef nonnull align 8 dereferenceable(16) %5)
  %7 = load i64, ptr %4, align 8
  call void @_ZN4llvm15SmallVectorBaseIjEC2EPvm(ptr noundef nonnull align 8 dereferenceable(16) %5, ptr noundef %6, i64 noundef %7)
  ret void
}

; Function Attrs: mustprogress nounwind uwtable
define linkonce_odr hidden void @_ZN4llvm25SmallVectorTemplateCommonIPNS_4TypeEvEC2Em(ptr noundef nonnull align 8 dereferenceable(16) %0, i64 noundef %1) unnamed_addr #1 comdat align 2 {
  %3 = alloca ptr, align 8
  %4 = alloca i64, align 8
  store ptr %0, ptr %3, align 8
  store i64 %1, ptr %4, align 8
  %5 = load ptr, ptr %3, align 8
  %6 = call noundef ptr @_ZNK4llvm25SmallVectorTemplateCommonIPNS_4TypeEvE10getFirstElEv(ptr noundef nonnull align 8 dereferenceable(16) %5)
  %7 = load i64, ptr %4, align 8
  call void @_ZN4llvm15SmallVectorBaseIjEC2EPvm(ptr noundef nonnull align 8 dereferenceable(16) %5, ptr noundef %6, i64 noundef %7)
  ret void
}

; Function Attrs: mustprogress nounwind uwtable
define linkonce_odr hidden void @_ZN4llvm23SmallVectorTemplateBaseIPKNS_5ValueELb1EEC2Em(ptr noundef nonnull align 8 dereferenceable(16) %0, i64 noundef %1) unnamed_addr #1 comdat align 2 {
  %3 = alloca ptr, align 8
  %4 = alloca i64, align 8
  store ptr %0, ptr %3, align 8
  store i64 %1, ptr %4, align 8
  %5 = load ptr, ptr %3, align 8
  %6 = load i64, ptr %4, align 8
  call void @_ZN4llvm25SmallVectorTemplateCommonIPKNS_5ValueEvEC2Em(ptr noundef nonnull align 8 dereferenceable(16) %5, i64 noundef %6)
  ret void
}

; Function Attrs: mustprogress nounwind uwtable
define linkonce_odr hidden void @_ZN4llvm23SmallVectorTemplateBaseIPNS_4TypeELb1EEC2Em(ptr noundef nonnull align 8 dereferenceable(16) %0, i64 noundef %1) unnamed_addr #1 comdat align 2 {
  %3 = alloca ptr, align 8
  %4 = alloca i64, align 8
  store ptr %0, ptr %3, align 8
  store i64 %1, ptr %4, align 8
  %5 = load ptr, ptr %3, align 8
  %6 = load i64, ptr %4, align 8
  call void @_ZN4llvm25SmallVectorTemplateCommonIPNS_4TypeEvEC2Em(ptr noundef nonnull align 8 dereferenceable(16) %5, i64 noundef %6)
  ret void
}

; Function Attrs: mustprogress nounwind uwtable
define linkonce_odr hidden void @_ZN4llvm15SmallVectorImplIPKNS_5ValueEEC2Ej(ptr noundef nonnull align 8 dereferenceable(16) %0, i32 noundef %1) unnamed_addr #1 comdat align 2 {
  %3 = alloca ptr, align 8
  %4 = alloca i32, align 4
  store ptr %0, ptr %3, align 8
  store i32 %1, ptr %4, align 4
  %5 = load ptr, ptr %3, align 8
  %6 = load i32, ptr %4, align 4
  %7 = zext i32 %6 to i64
  call void @_ZN4llvm23SmallVectorTemplateBaseIPKNS_5ValueELb1EEC2Em(ptr noundef nonnull align 8 dereferenceable(16) %5, i64 noundef %7)
  ret void
}

; Function Attrs: mustprogress nounwind uwtable
define linkonce_odr hidden void @_ZN4llvm15SmallVectorImplIPNS_4TypeEEC2Ej(ptr noundef nonnull align 8 dereferenceable(16) %0, i32 noundef %1) unnamed_addr #1 comdat align 2 {
  %3 = alloca ptr, align 8
  %4 = alloca i32, align 4
  store ptr %0, ptr %3, align 8
  store i32 %1, ptr %4, align 4
  %5 = load ptr, ptr %3, align 8
  %6 = load i32, ptr %4, align 4
  %7 = zext i32 %6 to i64
  call void @_ZN4llvm23SmallVectorTemplateBaseIPNS_4TypeELb1EEC2Em(ptr noundef nonnull align 8 dereferenceable(16) %5, i64 noundef %7)
  ret void
}

; Function Attrs: mustprogress nounwind uwtable
define linkonce_odr hidden noundef ptr @_ZNK4llvm8ArrayRefIPKNS_5ValueEE3endEv(ptr noundef nonnull align 8 dereferenceable(16) %0) #1 comdat align 2 {
  %2 = alloca ptr, align 8
  store ptr %0, ptr %2, align 8
  %3 = load ptr, ptr %2, align 8
  %4 = getelementptr inbounds nuw %"class.llvm::ArrayRef.53", ptr %3, i32 0, i32 0
  %5 = load ptr, ptr %4, align 8
  %6 = getelementptr inbounds nuw %"class.llvm::ArrayRef.53", ptr %3, i32 0, i32 1
  %7 = load i64, ptr %6, align 8
  %8 = getelementptr inbounds ptr, ptr %5, i64 %7
  ret ptr %8
}

; Function Attrs: mustprogress nounwind uwtable
define linkonce_odr hidden noundef ptr @_ZNK4llvm8ArrayRefIPKNS_5ValueEE5beginEv(ptr noundef nonnull align 8 dereferenceable(16) %0) #1 comdat align 2 {
  %2 = alloca ptr, align 8
  store ptr %0, ptr %2, align 8
  %3 = load ptr, ptr %2, align 8
  %4 = getelementptr inbounds nuw %"class.llvm::ArrayRef.53", ptr %3, i32 0, i32 0
  %5 = load ptr, ptr %4, align 8
  ret ptr %5
}

; Function Attrs: mustprogress nounwind uwtable
define linkonce_odr hidden noundef ptr @_ZN4llvm25SmallVectorTemplateCommonIPKNS_5ValueEvE5beginEv(ptr noundef nonnull align 8 dereferenceable(16) %0) #1 comdat align 2 {
  %2 = alloca ptr, align 8
  store ptr %0, ptr %2, align 8
  %3 = load ptr, ptr %2, align 8
  %4 = getelementptr inbounds nuw %"class.llvm::SmallVectorBase", ptr %3, i32 0, i32 0
  %5 = load ptr, ptr %4, align 8
  ret ptr %5
}

; Function Attrs: mustprogress nounwind uwtable
define linkonce_odr hidden noundef ptr @_ZNK4llvm8ArrayRefIPNS_4TypeEE3endEv(ptr noundef nonnull align 8 dereferenceable(16) %0) #1 comdat align 2 {
  %2 = alloca ptr, align 8
  store ptr %0, ptr %2, align 8
  %3 = load ptr, ptr %2, align 8
  %4 = getelementptr inbounds nuw %"class.llvm::ArrayRef", ptr %3, i32 0, i32 0
  %5 = load ptr, ptr %4, align 8
  %6 = getelementptr inbounds nuw %"class.llvm::ArrayRef", ptr %3, i32 0, i32 1
  %7 = load i64, ptr %6, align 8
  %8 = getelementptr inbounds ptr, ptr %5, i64 %7
  ret ptr %8
}

; Function Attrs: mustprogress nounwind uwtable
define linkonce_odr hidden noundef ptr @_ZNK4llvm8ArrayRefIPNS_4TypeEE5beginEv(ptr noundef nonnull align 8 dereferenceable(16) %0) #1 comdat align 2 {
  %2 = alloca ptr, align 8
  store ptr %0, ptr %2, align 8
  %3 = load ptr, ptr %2, align 8
  %4 = getelementptr inbounds nuw %"class.llvm::ArrayRef", ptr %3, i32 0, i32 0
  %5 = load ptr, ptr %4, align 8
  ret ptr %5
}

; Function Attrs: mustprogress nounwind uwtable
define linkonce_odr hidden noundef ptr @_ZN4llvm25SmallVectorTemplateCommonIPNS_4TypeEvE5beginEv(ptr noundef nonnull align 8 dereferenceable(16) %0) #1 comdat align 2 {
  %2 = alloca ptr, align 8
  store ptr %0, ptr %2, align 8
  %3 = load ptr, ptr %2, align 8
  %4 = getelementptr inbounds nuw %"class.llvm::SmallVectorBase", ptr %3, i32 0, i32 0
  %5 = load ptr, ptr %4, align 8
  ret ptr %5
}

; Function Attrs: mustprogress nounwind uwtable
define linkonce_odr hidden void @_ZN4llvm11SmallVectorIPKNS_5ValueELj4EEC2Ev(ptr noundef nonnull align 8 dereferenceable(48) %0) unnamed_addr #1 comdat align 2 {
  %2 = alloca ptr, align 8
  store ptr %0, ptr %2, align 8
  %3 = load ptr, ptr %2, align 8
  call void @_ZN4llvm15SmallVectorImplIPKNS_5ValueEEC2Ej(ptr noundef nonnull align 8 dereferenceable(16) %3, i32 noundef 4)
  ret void
}

; Function Attrs: mustprogress nounwind uwtable
define linkonce_odr hidden void @_ZN4llvm11SmallVectorIPNS_4TypeELj4EEC2Ev(ptr noundef nonnull align 8 dereferenceable(48) %0) unnamed_addr #1 comdat align 2 {
  %2 = alloca ptr, align 8
  store ptr %0, ptr %2, align 8
  %3 = load ptr, ptr %2, align 8
  call void @_ZN4llvm15SmallVectorImplIPNS_4TypeEEC2Ej(ptr noundef nonnull align 8 dereferenceable(16) %3, i32 noundef 4)
  ret void
}

; Function Attrs: mustprogress nounwind uwtable
define dso_local void @_ZN4llvm23IntrinsicCostAttributesC2EjPNS_4TypeENS_8ArrayRefIPKNS_5ValueEEENS3_IS2_EENS_13FastMathFlagsEPKNS_13IntrinsicInstENS_15InstructionCostE(ptr noundef nonnull align 8 dereferenceable(144) %0, i32 noundef %1, ptr noundef %2, ptr %3, i64 %4, ptr noundef byval(%"class.llvm::ArrayRef") align 8 %5, i32 %6, ptr noundef %7, ptr noundef byval(%"class.llvm::InstructionCost") align 8 %8) unnamed_addr #1 align 2 {
  %10 = alloca %"class.llvm::ArrayRef.53", align 8
  %11 = alloca %"class.llvm::FastMathFlags", align 4
  %12 = alloca ptr, align 8
  %13 = alloca i32, align 4
  %14 = alloca ptr, align 8
  %15 = alloca ptr, align 8
  %16 = getelementptr inbounds nuw { ptr, i64 }, ptr %10, i32 0, i32 0
  store ptr %3, ptr %16, align 8
  %17 = getelementptr inbounds nuw { ptr, i64 }, ptr %10, i32 0, i32 1
  store i64 %4, ptr %17, align 8
  %18 = getelementptr inbounds nuw %"class.llvm::FastMathFlags", ptr %11, i32 0, i32 0
  store i32 %6, ptr %18, align 4
  store ptr %0, ptr %12, align 8
  store i32 %1, ptr %13, align 4
  store ptr %2, ptr %14, align 8
  store ptr %7, ptr %15, align 8
  %19 = load ptr, ptr %12, align 8
  %20 = getelementptr inbounds nuw %"class.llvm::IntrinsicCostAttributes", ptr %19, i32 0, i32 0
  %21 = load ptr, ptr %15, align 8
  store ptr %21, ptr %20, align 8
  %22 = getelementptr inbounds nuw %"class.llvm::IntrinsicCostAttributes", ptr %19, i32 0, i32 1
  %23 = load ptr, ptr %14, align 8
  store ptr %23, ptr %22, align 8
  %24 = getelementptr inbounds nuw %"class.llvm::IntrinsicCostAttributes", ptr %19, i32 0, i32 2
  %25 = load i32, ptr %13, align 4
  store i32 %25, ptr %24, align 8
  %26 = getelementptr inbounds nuw %"class.llvm::IntrinsicCostAttributes", ptr %19, i32 0, i32 3
  call void @_ZN4llvm11SmallVectorIPNS_4TypeELj4EEC2Ev(ptr noundef nonnull align 8 dereferenceable(48) %26)
  %27 = getelementptr inbounds nuw %"class.llvm::IntrinsicCostAttributes", ptr %19, i32 0, i32 4
  call void @_ZN4llvm11SmallVectorIPKNS_5ValueELj4EEC2Ev(ptr noundef nonnull align 8 dereferenceable(48) %27)
  %28 = getelementptr inbounds nuw %"class.llvm::IntrinsicCostAttributes", ptr %19, i32 0, i32 5
  call void @llvm.memcpy.p0.p0.i64(ptr align 8 %28, ptr align 4 %11, i64 4, i1 false)
  %29 = getelementptr inbounds nuw %"class.llvm::IntrinsicCostAttributes", ptr %19, i32 0, i32 7
  call void @llvm.memcpy.p0.p0.i64(ptr align 8 %29, ptr align 8 %8, i64 16, i1 false)
  %30 = getelementptr inbounds nuw %"class.llvm::IntrinsicCostAttributes", ptr %19, i32 0, i32 3
  %31 = getelementptr inbounds nuw %"class.llvm::IntrinsicCostAttributes", ptr %19, i32 0, i32 3
  %32 = call noundef ptr @_ZN4llvm25SmallVectorTemplateCommonIPNS_4TypeEvE5beginEv(ptr noundef nonnull align 8 dereferenceable(16) %31)
  %33 = call noundef ptr @_ZNK4llvm8ArrayRefIPNS_4TypeEE5beginEv(ptr noundef nonnull align 8 dereferenceable(16) %5)
  %34 = call noundef ptr @_ZNK4llvm8ArrayRefIPNS_4TypeEE3endEv(ptr noundef nonnull align 8 dereferenceable(16) %5)
  %35 = call noundef ptr @_ZN4llvm15SmallVectorImplIPNS_4TypeEE6insertIPKS2_vEEPS2_S7_T_S8_(ptr noundef nonnull align 8 dereferenceable(16) %30, ptr noundef %32, ptr noundef %33, ptr noundef %34)
  %36 = getelementptr inbounds nuw %"class.llvm::IntrinsicCostAttributes", ptr %19, i32 0, i32 4
  %37 = getelementptr inbounds nuw %"class.llvm::IntrinsicCostAttributes", ptr %19, i32 0, i32 4
  %38 = call noundef ptr @_ZN4llvm25SmallVectorTemplateCommonIPKNS_5ValueEvE5beginEv(ptr noundef nonnull align 8 dereferenceable(16) %37)
  %39 = call noundef ptr @_ZNK4llvm8ArrayRefIPKNS_5ValueEE5beginEv(ptr noundef nonnull align 8 dereferenceable(16) %10)
  %40 = call noundef ptr @_ZNK4llvm8ArrayRefIPKNS_5ValueEE3endEv(ptr noundef nonnull align 8 dereferenceable(16) %10)
  %41 = call noundef ptr @_ZN4llvm15SmallVectorImplIPKNS_5ValueEE6insertIPKS3_vEEPS3_S8_T_S9_(ptr noundef nonnull align 8 dereferenceable(16) %36, ptr noundef %38, ptr noundef %39, ptr noundef %40)
  ret void
}