; Function Attrs: mustprogress nounwind uwtable
define dso_local void @_ZN4llvm23IntrinsicCostAttributesC2EjPNS_4TypeENS_8ArrayRefIPKNS_5ValueEEENS3_IS2_EENS_13FastMathFlagsEPKNS_13IntrinsicInstENS_15InstructionCostE(ptr noundef nonnull align 8 dereferenceable(144) %0, i32 noundef %1, ptr noundef %2, ptr %3, i64 %4, ptr nocapture noundef readonly byval(%"class.llvm::ArrayRef") align 8 %5, i32 %6, ptr noundef %7, ptr nocapture noundef readonly byval(%"class.llvm::InstructionCost") align 8 %8) unnamed_addr #0 align 2 {
  store ptr %7, ptr %0, align 8
  %10 = getelementptr inbounds nuw i8, ptr %0, i64 8
  store ptr %2, ptr %10, align 8
  %11 = getelementptr inbounds nuw i8, ptr %0, i64 16
  store i32 %1, ptr %11, align 8
  %12 = getelementptr inbounds nuw i8, ptr %0, i64 24
  %13 = getelementptr inbounds i8, ptr %0, i64 40
  tail call void @_ZN4llvm15SmallVectorBaseIjEC2EPvm(ptr noundef nonnull align 8 dereferenceable(16) %12, ptr noundef nonnull %13, i64 noundef 4) #25
  %14 = getelementptr inbounds nuw i8, ptr %0, i64 72
  %15 = getelementptr inbounds i8, ptr %0, i64 88
  tail call void @_ZN4llvm15SmallVectorBaseIjEC2EPvm(ptr noundef nonnull align 8 dereferenceable(16) %14, ptr noundef nonnull %15, i64 noundef 4) #25
  %16 = getelementptr inbounds nuw i8, ptr %0, i64 120
  store i32 %6, ptr %16, align 8
  %17 = getelementptr inbounds nuw i8, ptr %0, i64 128
  call void @llvm.memcpy.p0.p0.i64(ptr noundef nonnull align 8 dereferenceable(16) %17, ptr noundef nonnull align 8 dereferenceable(16) %8, i64 16, i1 false)
  %18 = load ptr, ptr %12, align 8
  %19 = load ptr, ptr %5, align 8
  %20 = getelementptr inbounds nuw i8, ptr %5, i64 8
  %21 = load i64, ptr %20, align 8
  %22 = getelementptr inbounds ptr, ptr %19, i64 %21
  %23 = tail call noundef ptr @_ZN4llvm15SmallVectorImplIPNS_4TypeEE6insertIPKS2_vEEPS2_S7_T_S8_(ptr noundef nonnull align 8 dereferenceable(16) %12, ptr noundef %18, ptr noundef %19, ptr noundef %22)
  %24 = load ptr, ptr %14, align 8
  %25 = getelementptr inbounds ptr, ptr %3, i64 %4
  %26 = tail call noundef ptr @_ZN4llvm15SmallVectorImplIPKNS_5ValueEE6insertIPKS3_vEEPS3_S8_T_S9_(ptr noundef nonnull align 8 dereferenceable(16) %14, ptr noundef %24, ptr noundef %3, ptr noundef %25)
  ret void
}